target datalayout = "e-m:e-p270:32:32-p271:32:32-p272:64:64-i64:64-i128:128-f80:128-n8:16:32:64-S128"
target triple = "x86_64-pc-linux-gnu"

%struct.CONF_VALUE = type { ptr, ptr, ptr }

@.str = private unnamed_addr constant [4 x i8] c"%*s\00", align 1
@.str.1 = private unnamed_addr constant [1 x i8] zeroinitializer, align 1
@.str.2 = private unnamed_addr constant [9 x i8] c"<EMPTY>\0A\00", align 1
@.str.3 = private unnamed_addr constant [2 x i8] c"\0A\00", align 1
@.str.4 = private unnamed_addr constant [3 x i8] c", \00", align 1
@.str.5 = private unnamed_addr constant [6 x i8] c"%s:%s\00", align 1

; Function Attrs: inlinehint nounwind uwtable
define internal ptr @ossl_check_const_CONF_VALUE_sk_type(ptr noundef %0) #3 {
  %2 = alloca ptr, align 8
  store ptr %0, ptr %2, align 8, !tbaa !8
  %3 = load ptr, ptr %2, align 8, !tbaa !8
  ret ptr %3
}

; Function Attrs: nounwind uwtable
define void @X509V3_EXT_val_prn(ptr noundef %0, ptr noundef %1, i32 noundef %2, i32 noundef %3) #0 {
  %5 = alloca ptr, align 8
  %6 = alloca ptr, align 8
  %7 = alloca i32, align 4
  %8 = alloca i32, align 4
  %9 = alloca i32, align 4
  %10 = alloca ptr, align 8
  %11 = alloca i32, align 4
  store ptr %0, ptr %5, align 8, !tbaa !3
  store ptr %1, ptr %6, align 8, !tbaa !8
  store i32 %2, ptr %7, align 4, !tbaa !10
  store i32 %3, ptr %8, align 4, !tbaa !10
  call void @llvm.lifetime.start.p0(i64 4, ptr %9) #4
  call void @llvm.lifetime.start.p0(i64 8, ptr %10) #4
  %12 = load ptr, ptr %6, align 8, !tbaa !8
  %13 = icmp ne ptr %12, null
  br i1 %13, label %15, label %14

14:                                               ; preds = %4
  store i32 1, ptr %11, align 4
  br label %103

15:                                               ; preds = %4
  %16 = load i32, ptr %8, align 4, !tbaa !10
  %17 = icmp ne i32 %16, 0
  br i1 %17, label %18, label %23

18:                                               ; preds = %15
  %19 = load ptr, ptr %6, align 8, !tbaa !8
  %20 = call ptr @ossl_check_const_CONF_VALUE_sk_type(ptr noundef %19)
  %21 = call i32 @OPENSSL_sk_num(ptr noundef %20)
  %22 = icmp ne i32 %21, 0
  br i1 %22, label %35, label %23

23:                                               ; preds = %18, %15
  %24 = load ptr, ptr %5, align 8, !tbaa !3
  %25 = load i32, ptr %7, align 4, !tbaa !10
  %26 = call i32 (ptr, ptr, ...) @BIO_printf(ptr noundef %24, ptr noundef @.str, i32 noundef %25, ptr noundef @.str.1)
  %27 = load ptr, ptr %6, align 8, !tbaa !8
  %28 = call ptr @ossl_check_const_CONF_VALUE_sk_type(ptr noundef %27)
  %29 = call i32 @OPENSSL_sk_num(ptr noundef %28)
  %30 = icmp ne i32 %29, 0
  br i1 %30, label %34, label %31

31:                                               ; preds = %23
  %32 = load ptr, ptr %5, align 8, !tbaa !3
  %33 = call i32 @BIO_puts(ptr noundef %32, ptr noundef @.str.2)
  br label %34

34:                                               ; preds = %31, %23
  br label %35

35:                                               ; preds = %34, %18
  store i32 0, ptr %9, align 4, !tbaa !10
  br label %36

36:                                               ; preds = %99, %35
  %37 = load i32, ptr %9, align 4, !tbaa !10
  %38 = load ptr, ptr %6, align 8, !tbaa !8
  %39 = call ptr @ossl_check_const_CONF_VALUE_sk_type(ptr noundef %38)
  %40 = call i32 @OPENSSL_sk_num(ptr noundef %39)
  %41 = icmp slt i32 %37, %40
  br i1 %41, label %42, label %102

42:                                               ; preds = %36
  %43 = load i32, ptr %8, align 4, !tbaa !10
  %44 = icmp ne i32 %43, 0
  br i1 %44, label %45, label %55

45:                                               ; preds = %42
  %46 = load i32, ptr %9, align 4, !tbaa !10
  %47 = icmp sgt i32 %46, 0
  br i1 %47, label %48, label %51

48:                                               ; preds = %45
  %49 = load ptr, ptr %5, align 8, !tbaa !3
  %50 = call i32 (ptr, ptr, ...) @BIO_printf(ptr noundef %49, ptr noundef @.str.3)
  br label %51

51:                                               ; preds = %48, %45
  %52 = load ptr, ptr %5, align 8, !tbaa !3
  %53 = load i32, ptr %7, align 4, !tbaa !10
  %54 = call i32 (ptr, ptr, ...) @BIO_printf(ptr noundef %52, ptr noundef @.str, i32 noundef %53, ptr noundef @.str.1)
  br label %62

55:                                               ; preds = %42
  %56 = load i32, ptr %9, align 4, !tbaa !10
  %57 = icmp sgt i32 %56, 0
  br i1 %57, label %58, label %61

58:                                               ; preds = %55
  %59 = load ptr, ptr %5, align 8, !tbaa !3
  %60 = call i32 (ptr, ptr, ...) @BIO_printf(ptr noundef %59, ptr noundef @.str.4)
  br label %61

61:                                               ; preds = %58, %55
  br label %62

62:                                               ; preds = %61, %51
  %63 = load ptr, ptr %6, align 8, !tbaa !8
  %64 = call ptr @ossl_check_const_CONF_VALUE_sk_type(ptr noundef %63)
  %65 = load i32, ptr %9, align 4, !tbaa !10
  %66 = call ptr @OPENSSL_sk_value(ptr noundef %64, i32 noundef %65)
  store ptr %66, ptr %10, align 8, !tbaa !12
  %67 = load ptr, ptr %10, align 8, !tbaa !12
  %68 = getelementptr inbounds nuw %struct.CONF_VALUE, ptr %67, i32 0, i32 1
  %69 = load ptr, ptr %68, align 8, !tbaa !13
  %70 = icmp ne ptr %69, null
  br i1 %70, label %77, label %71

71:                                               ; preds = %62
  %72 = load ptr, ptr %5, align 8, !tbaa !3
  %73 = load ptr, ptr %10, align 8, !tbaa !12
  %74 = getelementptr inbounds nuw %struct.CONF_VALUE, ptr %73, i32 0, i32 2
  %75 = load ptr, ptr %74, align 8, !tbaa !16
  %76 = call i32 @BIO_puts(ptr noundef %72, ptr noundef %75)
  br label %98

77:                                               ; preds = %62
  %78 = load ptr, ptr %10, align 8, !tbaa !12
  %79 = getelementptr inbounds nuw %struct.CONF_VALUE, ptr %78, i32 0, i32 2
  %80 = load ptr, ptr %79, align 8, !tbaa !16
  %81 = icmp ne ptr %80, null
  br i1 %81, label %88, label %82

82:                                               ; preds = %77
  %83 = load ptr, ptr %5, align 8, !tbaa !3
  %84 = load ptr, ptr %10, align 8, !tbaa !12
  %85 = getelementptr inbounds nuw %struct.CONF_VALUE, ptr %84, i32 0, i32 1
  %86 = load ptr, ptr %85, align 8, !tbaa !13
  %87 = call i32 @BIO_puts(ptr noundef %83, ptr noundef %86)
  br label %97

88:                                               ; preds = %77
  %89 = load ptr, ptr %5, align 8, !tbaa !3
  %90 = load ptr, ptr %10, align 8, !tbaa !12
  %91 = getelementptr inbounds nuw %struct.CONF_VALUE, ptr %90, i32 0, i32 1
  %92 = load ptr, ptr %91, align 8, !tbaa !13
  %93 = load ptr, ptr %10, align 8, !tbaa !12
  %94 = getelementptr inbounds nuw %struct.CONF_VALUE, ptr %93, i32 0, i32 2
  %95 = load ptr, ptr %94, align 8, !tbaa !16
  %96 = call i32 (ptr, ptr, ...) @BIO_printf(ptr noundef %89, ptr noundef @.str.5, ptr noundef %92, ptr noundef %95)
  br label %97

97:                                               ; preds = %88, %82
  br label %98

98:                                               ; preds = %97, %71
  br label %99

99:                                               ; preds = %98
  %100 = load i32, ptr %9, align 4, !tbaa !10
  %101 = add nsw i32 %100, 1
  store i32 %101, ptr %9, align 4, !tbaa !10
  br label %36, !llvm.loop !17

102:                                              ; preds = %36
  store i32 0, ptr %11, align 4
  br label %103

103:                                              ; preds = %102, %14
  call void @llvm.lifetime.end.p0(i64 8, ptr %10) #4
  call void @llvm.lifetime.end.p0(i64 4, ptr %9) #4
  %104 = load i32, ptr %11, align 4
  switch i32 %104, label %106 [
    i32 0, label %105
    i32 1, label %105
  ]

105:                                              ; preds = %103, %103
  ret void

106:                                              ; preds = %103
  unreachable
}