; Function Attrs: nounwind uwtable
define void @X509V3_EXT_val_prn(ptr noundef %0, ptr noundef %1, i32 noundef %2, i32 noundef %3) local_unnamed_addr #0 {
  %.not = icmp eq ptr %1, null
  br i1 %.not, label %.loopexit, label %5

5:                                                ; preds = %4
  %.not30 = icmp eq i32 %3, 0
  br i1 %.not30, label %8, label %6

6:                                                ; preds = %5
  %7 = tail call i32 @OPENSSL_sk_num(ptr noundef nonnull %1) #3
  %.not31 = icmp eq i32 %7, 0
  br i1 %.not31, label %8, label %.thread

8:                                                ; preds = %6, %5
  %9 = tail call i32 (ptr, ptr, ...) @BIO_printf(ptr noundef %0, ptr noundef nonnull @.str, i32 noundef %2, ptr noundef nonnull @.str.1) #3
  %10 = tail call i32 @OPENSSL_sk_num(ptr noundef nonnull %1) #3
  %.not32 = icmp eq i32 %10, 0
  br i1 %.not32, label %11, label %13

11:                                               ; preds = %8
  %12 = tail call i32 @BIO_puts(ptr noundef %0, ptr noundef nonnull @.str.2) #3
  br label %13

13:                                               ; preds = %8, %11
  %14 = tail call i32 @OPENSSL_sk_num(ptr noundef nonnull %1) #3
  %15 = icmp sgt i32 %14, 0
  br i1 %15, label %.lr.ph, label %.loopexit

.thread:                                          ; preds = %6
  %16 = tail call i32 @OPENSSL_sk_num(ptr noundef nonnull %1) #3
  %17 = icmp sgt i32 %16, 0
  br i1 %17, label %.lr.ph.split.preheader, label %.loopexit

.lr.ph:                                           ; preds = %13
  br i1 %.not30, label %.lr.ph.split.us, label %.lr.ph.split.preheader

.lr.ph.split.preheader:                           ; preds = %.thread, %.lr.ph
  br label %.lr.ph.split

.lr.ph.split.us:                                  ; preds = %.lr.ph, %33
  %.037.us = phi i32 [ %34, %33 ], [ 0, %.lr.ph ]
  %.not33.us = icmp eq i32 %.037.us, 0
  br i1 %.not33.us, label %20, label %18

18:                                               ; preds = %.lr.ph.split.us
  %19 = tail call i32 (ptr, ptr, ...) @BIO_printf(ptr noundef %0, ptr noundef nonnull @.str.4) #3
  br label %20

20:                                               ; preds = %18, %.lr.ph.split.us
  %21 = tail call ptr @OPENSSL_sk_value(ptr noundef nonnull %1, i32 noundef %.037.us) #3
  %22 = getelementptr inbounds nuw i8, ptr %21, i64 8
  %23 = load ptr, ptr %22, align 8, !tbaa !3
  %.not35.us = icmp eq ptr %23, null
  %24 = getelementptr inbounds nuw i8, ptr %21, i64 16
  %25 = load ptr, ptr %24, align 8, !tbaa !9
  br i1 %.not35.us, label %31, label %26

26:                                               ; preds = %20
  %.not36.us = icmp eq ptr %25, null
  br i1 %.not36.us, label %29, label %27

27:                                               ; preds = %26
  %28 = tail call i32 (ptr, ptr, ...) @BIO_printf(ptr noundef %0, ptr noundef nonnull @.str.5, ptr noundef nonnull %23, ptr noundef nonnull %25) #3
  br label %33

29:                                               ; preds = %26
  %30 = tail call i32 @BIO_puts(ptr noundef %0, ptr noundef nonnull %23) #3
  br label %33

31:                                               ; preds = %20
  %32 = tail call i32 @BIO_puts(ptr noundef %0, ptr noundef %25) #3
  br label %33

33:                                               ; preds = %31, %29, %27
  %34 = add nuw nsw i32 %.037.us, 1
  %35 = tail call i32 @OPENSSL_sk_num(ptr noundef nonnull %1) #3
  %36 = icmp slt i32 %34, %35
  br i1 %36, label %.lr.ph.split.us, label %.loopexit, !llvm.loop !10

.lr.ph.split:                                     ; preds = %.lr.ph.split.preheader, %53
  %.037 = phi i32 [ %54, %53 ], [ 0, %.lr.ph.split.preheader ]
  %.not34 = icmp eq i32 %.037, 0
  br i1 %.not34, label %39, label %37

37:                                               ; preds = %.lr.ph.split
  %38 = tail call i32 (ptr, ptr, ...) @BIO_printf(ptr noundef %0, ptr noundef nonnull @.str.3) #3
  br label %39

39:                                               ; preds = %37, %.lr.ph.split
  %40 = tail call i32 (ptr, ptr, ...) @BIO_printf(ptr noundef %0, ptr noundef nonnull @.str, i32 noundef %2, ptr noundef nonnull @.str.1) #3
  %41 = tail call ptr @OPENSSL_sk_value(ptr noundef nonnull %1, i32 noundef %.037) #3
  %42 = getelementptr inbounds nuw i8, ptr %41, i64 8
  %43 = load ptr, ptr %42, align 8, !tbaa !3
  %.not35 = icmp eq ptr %43, null
  %44 = getelementptr inbounds nuw i8, ptr %41, i64 16
  %45 = load ptr, ptr %44, align 8, !tbaa !9
  br i1 %.not35, label %46, label %48

46:                                               ; preds = %39
  %47 = tail call i32 @BIO_puts(ptr noundef %0, ptr noundef %45) #3
  br label %53

48:                                               ; preds = %39
  %.not36 = icmp eq ptr %45, null
  br i1 %.not36, label %49, label %51

49:                                               ; preds = %48
  %50 = tail call i32 @BIO_puts(ptr noundef %0, ptr noundef nonnull %43) #3
  br label %53

51:                                               ; preds = %48
  %52 = tail call i32 (ptr, ptr, ...) @BIO_printf(ptr noundef %0, ptr noundef nonnull @.str.5, ptr noundef nonnull %43, ptr noundef nonnull %45) #3
  br label %53

53:                                               ; preds = %46, %51, %49
  %54 = add nuw nsw i32 %.037, 1
  %55 = tail call i32 @OPENSSL_sk_num(ptr noundef nonnull %1) #3
  %56 = icmp slt i32 %54, %55
  br i1 %56, label %.lr.ph.split, label %.loopexit, !llvm.loop !10

.loopexit:                                        ; preds = %53, %33, %.thread, %13, %4
  ret void
}